target datalayout = "e-m:e-p270:32:32-p271:32:32-p272:64:64-i64:64-i128:128-f80:128-n8:16:32:64-S128"
target triple = "x86_64-pc-linux-gnu"

%"struct.icu_77::CompositionPair" = type { i32, i32 }
%"struct.icu_77::Norm" = type { ptr, ptr, i32, i32, i32, ptr, i8, i8, i8, i8, i8, i8, i32, i32, ptr }
%"class.icu_77::Norms" = type { %"class.icu_77::UnicodeSet", %"class.icu_77::UnicodeSet", ptr, ptr, ptr }
%"class.icu_77::UnicodeSet" = type <{ %"class.icu_77::UnicodeFilter", ptr, i32, i32, i8, [7 x i8], ptr, ptr, i32, [4 x i8], ptr, i32, [4 x i8], ptr, ptr, [25 x i32], [4 x i8] }>
%"class.icu_77::UnicodeFilter" = type { %"class.icu_77::UnicodeFunctor", %"class.icu_77::UnicodeMatcher" }
%"class.icu_77::UnicodeFunctor" = type { %"class.icu_77::UObject" }
%"class.icu_77::UObject" = type { ptr }
%"class.icu_77::UnicodeMatcher" = type { ptr }
%"class.icu_77::UVector32" = type { %"class.icu_77::UObject", i32, i32, i32, ptr }

; Function Attrs: mustprogress uwtable
define dso_local noundef nonnull align 8 dereferenceable(64) ptr @_ZNK6icu_775Norms10getNormRefEi(ptr noundef nonnull align 8 dereferenceable(424) %0, i32 noundef %1) #0 align 2 {
  %3 = alloca ptr, align 8
  %4 = alloca i32, align 4
  store ptr %0, ptr %3, align 8, !tbaa !38
  store i32 %1, ptr %4, align 4, !tbaa !9
  %5 = load ptr, ptr %3, align 8
  %6 = getelementptr inbounds nuw %"class.icu_77::Norms", ptr %5, i32 0, i32 4
  %7 = load ptr, ptr %6, align 8, !tbaa !55
  %8 = getelementptr inbounds nuw %"class.icu_77::Norms", ptr %5, i32 0, i32 2
  %9 = load ptr, ptr %8, align 8, !tbaa !41
  %10 = load i32, ptr %4, align 4, !tbaa !9
  %11 = call i32 @umutablecptrie_get_77(ptr noundef %9, i32 noundef %10)
  %12 = zext i32 %11 to i64
  %13 = getelementptr inbounds nuw %"struct.icu_77::Norm", ptr %7, i64 %12
  ret ptr %13
}

; Function Attrs: inlinehint mustprogress nounwind uwtable
define linkonce_odr dso_local noundef ptr @_ZNK6icu_779UVector329getBufferEv(ptr noundef nonnull align 8 dereferenceable(32) %0) #7 comdat align 2 {
  %2 = alloca ptr, align 8
  store ptr %0, ptr %2, align 8, !tbaa !90
  %3 = load ptr, ptr %2, align 8
  %4 = getelementptr inbounds nuw %"class.icu_77::UVector32", ptr %3, i32 0, i32 4
  %5 = load ptr, ptr %4, align 8, !tbaa !105
  ret ptr %5
}

; Function Attrs: inlinehint mustprogress nounwind uwtable
define linkonce_odr dso_local noundef i32 @_ZNK6icu_779UVector324sizeEv(ptr noundef nonnull align 8 dereferenceable(32) %0) #7 comdat align 2 {
  %2 = alloca ptr, align 8
  store ptr %0, ptr %2, align 8, !tbaa !90
  %3 = load ptr, ptr %2, align 8
  %4 = getelementptr inbounds nuw %"class.icu_77::UVector32", ptr %3, i32 0, i32 1
  %5 = load i32, ptr %4, align 8, !tbaa !103
  ret i32 %5
}

; Function Attrs: mustprogress uwtable
define linkonce_odr dso_local noundef zeroext i8 @_ZNK6icu_775Norms5getCCEi(ptr noundef nonnull align 8 dereferenceable(424) %0, i32 noundef %1) #0 comdat align 2 {
  %3 = alloca ptr, align 8
  %4 = alloca i32, align 4
  store ptr %0, ptr %3, align 8, !tbaa !38
  store i32 %1, ptr %4, align 4, !tbaa !9
  %5 = load ptr, ptr %3, align 8
  %6 = load i32, ptr %4, align 4, !tbaa !9
  %7 = call noundef nonnull align 8 dereferenceable(64) ptr @_ZNK6icu_775Norms10getNormRefEi(ptr noundef nonnull align 8 dereferenceable(424) %5, i32 noundef %6)
  %8 = getelementptr inbounds nuw %"struct.icu_77::Norm", ptr %7, i32 0, i32 6
  %9 = load i8, ptr %8, align 8, !tbaa !77
  ret i8 %9
}

; Function Attrs: mustprogress uwtable
define linkonce_odr dso_local noundef ptr @_ZNK6icu_774Norm19getCompositionPairsERi(ptr noundef nonnull align 8 dereferenceable(64) %0, ptr noundef nonnull align 4 dereferenceable(4) %1) #0 comdat align 2 {
  %3 = alloca ptr, align 8
  %4 = alloca ptr, align 8
  %5 = alloca ptr, align 8
  store ptr %0, ptr %4, align 8, !tbaa !22
  store ptr %1, ptr %5, align 8, !tbaa !30
  %6 = load ptr, ptr %4, align 8
  %7 = getelementptr inbounds nuw %"struct.icu_77::Norm", ptr %6, i32 0, i32 5
  %8 = load ptr, ptr %7, align 8, !tbaa !32
  %9 = icmp eq ptr %8, null
  br i1 %9, label %10, label %12

10:                                               ; preds = %2
  %11 = load ptr, ptr %5, align 8, !tbaa !30
  store i32 0, ptr %11, align 4, !tbaa !9
  store ptr null, ptr %3, align 8
  br label %21

12:                                               ; preds = %2
  %13 = getelementptr inbounds nuw %"struct.icu_77::Norm", ptr %6, i32 0, i32 5
  %14 = load ptr, ptr %13, align 8, !tbaa !32
  %15 = call noundef i32 @_ZNK6icu_779UVector324sizeEv(ptr noundef nonnull align 8 dereferenceable(32) %14)
  %16 = sdiv i32 %15, 2
  %17 = load ptr, ptr %5, align 8, !tbaa !30
  store i32 %16, ptr %17, align 4, !tbaa !9
  %18 = getelementptr inbounds nuw %"struct.icu_77::Norm", ptr %6, i32 0, i32 5
  %19 = load ptr, ptr %18, align 8, !tbaa !32
  %20 = call noundef ptr @_ZNK6icu_779UVector329getBufferEv(ptr noundef nonnull align 8 dereferenceable(32) %19)
  store ptr %20, ptr %3, align 8
  br label %21

21:                                               ; preds = %12, %10
  %22 = load ptr, ptr %3, align 8
  ret ptr %22
}

; Function Attrs: mustprogress uwtable
define dso_local noundef signext i8 @_ZNK6icu_775Norms21combinesWithCCBetweenERKNS_4NormEhi(ptr noundef nonnull align 8 dereferenceable(424) %0, ptr noundef nonnull align 8 dereferenceable(64) %1, i8 noundef zeroext %2, i32 noundef %3) #0 align 2 {
  %5 = alloca i8, align 1
  %6 = alloca ptr, align 8
  %7 = alloca ptr, align 8
  %8 = alloca i8, align 1
  %9 = alloca i32, align 4
  %10 = alloca i32, align 4
  %11 = alloca ptr, align 8
  %12 = alloca i32, align 4
  %13 = alloca i32, align 4
  %14 = alloca i8, align 1
  store ptr %0, ptr %6, align 8, !tbaa !38
  store ptr %1, ptr %7, align 8, !tbaa !22
  store i8 %2, ptr %8, align 1, !tbaa !11
  store i32 %3, ptr %9, align 4, !tbaa !9
  %15 = load ptr, ptr %6, align 8
  %16 = load i32, ptr %9, align 4, !tbaa !9
  %17 = load i8, ptr %8, align 1, !tbaa !11
  %18 = zext i8 %17 to i32
  %19 = sub nsw i32 %16, %18
  %20 = icmp sge i32 %19, 2
  br i1 %20, label %21, label %61

21:                                               ; preds = %4
  call void @llvm.lifetime.start.p0(i64 4, ptr %10) #11
  call void @llvm.lifetime.start.p0(i64 8, ptr %11) #11
  %22 = load ptr, ptr %7, align 8, !tbaa !22
  %23 = call noundef ptr @_ZNK6icu_774Norm19getCompositionPairsERi(ptr noundef nonnull align 8 dereferenceable(64) %22, ptr noundef nonnull align 4 dereferenceable(4) %10)
  store ptr %23, ptr %11, align 8, !tbaa !24
  call void @llvm.lifetime.start.p0(i64 4, ptr %12) #11
  store i32 0, ptr %12, align 4, !tbaa !9
  br label %24

24:                                               ; preds = %52, %21
  %25 = load i32, ptr %12, align 4, !tbaa !9
  %26 = load i32, ptr %10, align 4, !tbaa !9
  %27 = icmp slt i32 %25, %26
  br i1 %27, label %29, label %28

28:                                               ; preds = %24
  store i32 2, ptr %13, align 4
  br label %55

29:                                               ; preds = %24
  call void @llvm.lifetime.start.p0(i64 1, ptr %14) #11
  %30 = load ptr, ptr %11, align 8, !tbaa !24
  %31 = load i32, ptr %12, align 4, !tbaa !9
  %32 = sext i32 %31 to i64
  %33 = getelementptr inbounds %"struct.icu_77::CompositionPair", ptr %30, i64 %32
  %34 = getelementptr inbounds nuw %"struct.icu_77::CompositionPair", ptr %33, i32 0, i32 0
  %35 = load i32, ptr %34, align 4, !tbaa !26
  %36 = call noundef zeroext i8 @_ZNK6icu_775Norms5getCCEi(ptr noundef nonnull align 8 dereferenceable(424) %15, i32 noundef %35)
  store i8 %36, ptr %14, align 1, !tbaa !11
  %37 = load i8, ptr %8, align 1, !tbaa !11
  %38 = zext i8 %37 to i32
  %39 = load i8, ptr %14, align 1, !tbaa !11
  %40 = zext i8 %39 to i32
  %41 = icmp slt i32 %38, %40
  br i1 %41, label %42, label %48

42:                                               ; preds = %29
  %43 = load i8, ptr %14, align 1, !tbaa !11
  %44 = zext i8 %43 to i32
  %45 = load i32, ptr %9, align 4, !tbaa !9
  %46 = icmp slt i32 %44, %45
  br i1 %46, label %47, label %48

47:                                               ; preds = %42
  store i8 1, ptr %5, align 1
  store i32 1, ptr %13, align 4
  br label %49

48:                                               ; preds = %42, %29
  store i32 0, ptr %13, align 4
  br label %49

49:                                               ; preds = %48, %47
  call void @llvm.lifetime.end.p0(i64 1, ptr %14) #11
  %50 = load i32, ptr %13, align 4
  switch i32 %50, label %55 [
    i32 0, label %51
  ]

51:                                               ; preds = %49
  br label %52

52:                                               ; preds = %51
  %53 = load i32, ptr %12, align 4, !tbaa !9
  %54 = add nsw i32 %53, 1
  store i32 %54, ptr %12, align 4, !tbaa !9
  br label %24, !llvm.loop !78

55:                                               ; preds = %49, %28
  call void @llvm.lifetime.end.p0(i64 4, ptr %12) #11
  %56 = load i32, ptr %13, align 4
  switch i32 %56, label %58 [
    i32 2, label %57
  ]

57:                                               ; preds = %55
  store i32 0, ptr %13, align 4
  br label %58

58:                                               ; preds = %57, %55
  call void @llvm.lifetime.end.p0(i64 8, ptr %11) #11
  call void @llvm.lifetime.end.p0(i64 4, ptr %10) #11
  %59 = load i32, ptr %13, align 4
  switch i32 %59, label %64 [
    i32 0, label %60
    i32 1, label %62
  ]

60:                                               ; preds = %58
  br label %61

61:                                               ; preds = %60, %4
  store i8 0, ptr %5, align 1
  br label %62

62:                                               ; preds = %61, %58
  %63 = load i8, ptr %5, align 1
  ret i8 %63

64:                                               ; preds = %58
  unreachable
}