; Function Attrs: mustprogress uwtable
define dso_local noundef signext range(i8 0, 2) i8 @_ZNK6icu_775Norms21combinesWithCCBetweenERKNS_4NormEhi(ptr noundef nonnull readonly align 8 captures(none) dereferenceable(424) %0, ptr noundef nonnull readonly align 8 captures(none) dereferenceable(64) %1, i8 noundef zeroext %2, i32 noundef %3) local_unnamed_addr #2 align 2 {
  %5 = zext i8 %2 to i32
  %6 = sub nsw i32 %3, %5
  %7 = icmp sgt i32 %6, 1
  br i1 %7, label %8, label %.thread

8:                                                ; preds = %4
  %9 = getelementptr inbounds nuw i8, ptr %1, i64 32
  %10 = load ptr, ptr %9, align 8, !tbaa !17
  %11 = icmp eq ptr %10, null
  br i1 %11, label %.thread, label %_ZNK6icu_774Norm19getCompositionPairsERi.exit

_ZNK6icu_774Norm19getCompositionPairsERi.exit:    ; preds = %8
  %12 = getelementptr inbounds nuw i8, ptr %10, i64 8
  %13 = load i32, ptr %12, align 8, !tbaa !25
  %14 = getelementptr inbounds nuw i8, ptr %10, i64 24
  %15 = load ptr, ptr %14, align 8, !tbaa !29
  %.not22 = icmp sgt i32 %13, 1
  br i1 %.not22, label %.critedge.lr.ph, label %.thread

.critedge.lr.ph:                                  ; preds = %_ZNK6icu_774Norm19getCompositionPairsERi.exit
  %16 = lshr i32 %13, 1
  %17 = getelementptr inbounds nuw i8, ptr %0, i64 416
  %18 = getelementptr inbounds nuw i8, ptr %0, i64 400
  %wide.trip.count = zext nneg i32 %16 to i64
  br label %.critedge

19:                                               ; preds = %.critedge
  %indvars.iv.next = add nuw nsw i64 %indvars.iv, 1
  %exitcond.not = icmp eq i64 %indvars.iv.next, %wide.trip.count
  br i1 %exitcond.not, label %.thread, label %.critedge, !llvm.loop !64

.critedge:                                        ; preds = %.critedge.lr.ph, %19
  %indvars.iv = phi i64 [ 0, %.critedge.lr.ph ], [ %indvars.iv.next, %19 ]
  %20 = getelementptr inbounds nuw %"struct.icu_77::CompositionPair", ptr %15, i64 %indvars.iv
  %21 = load i32, ptr %20, align 4, !tbaa !30
  %22 = load ptr, ptr %17, align 8, !tbaa !48
  %23 = load ptr, ptr %18, align 8, !tbaa !34
  %24 = tail call i32 @umutablecptrie_get_77(ptr noundef %23, i32 noundef %21)
  %25 = zext i32 %24 to i64
  %26 = getelementptr inbounds nuw %"struct.icu_77::Norm", ptr %22, i64 %25, i32 6
  %27 = load i8, ptr %26, align 8, !tbaa !62
  %28 = icmp ult i8 %2, %27
  %29 = zext i8 %27 to i32
  %30 = icmp sgt i32 %3, %29
  %or.cond = and i1 %28, %30
  br i1 %or.cond, label %.thread, label %19

.thread:                                          ; preds = %.critedge, %19, %8, %_ZNK6icu_774Norm19getCompositionPairsERi.exit, %4
  %.3 = phi i8 [ 0, %4 ], [ 0, %_ZNK6icu_774Norm19getCompositionPairsERi.exit ], [ 0, %8 ], [ 1, %.critedge ], [ 0, %19 ]
  ret i8 %.3
}